target datalayout = "e-m:e-p270:32:32-p271:32:32-p272:64:64-i64:64-i128:128-f80:128-n8:16:32:64-S128"
target triple = "x86_64-pc-linux-gnu"

%struct.mbedtls_mpi = type { i32, i64, ptr }

; Function Attrs: mustprogress nounwind uwtable
define hidden i32 @mbedtls_mpi_get_bit(ptr noundef %0, i64 noundef %1) #0 {
  %3 = alloca i32, align 4
  %4 = alloca ptr, align 8
  %5 = alloca i64, align 8
  store ptr %0, ptr %4, align 8, !tbaa !3
  store i64 %1, ptr %5, align 8, !tbaa !16
  br label %6

6:                                                ; preds = %2
  br label %7

7:                                                ; preds = %6
  %8 = load ptr, ptr %4, align 8, !tbaa !3
  %9 = getelementptr inbounds nuw %struct.mbedtls_mpi, ptr %8, i32 0, i32 1
  %10 = load i64, ptr %9, align 8, !tbaa !13
  %11 = mul i64 %10, 64
  %12 = load i64, ptr %5, align 8, !tbaa !16
  %13 = icmp ule i64 %11, %12
  br i1 %13, label %14, label %15

14:                                               ; preds = %7
  store i32 0, ptr %3, align 4
  br label %28

15:                                               ; preds = %7
  %16 = load ptr, ptr %4, align 8, !tbaa !3
  %17 = getelementptr inbounds nuw %struct.mbedtls_mpi, ptr %16, i32 0, i32 2
  %18 = load ptr, ptr %17, align 8, !tbaa !14
  %19 = load i64, ptr %5, align 8, !tbaa !16
  %20 = udiv i64 %19, 64
  %21 = getelementptr inbounds nuw i64, ptr %18, i64 %20
  %22 = load i64, ptr %21, align 8, !tbaa !16
  %23 = load i64, ptr %5, align 8, !tbaa !16
  %24 = urem i64 %23, 64
  %25 = lshr i64 %22, %24
  %26 = and i64 %25, 1
  %27 = trunc i64 %26 to i32
  store i32 %27, ptr %3, align 4
  br label %28

28:                                               ; preds = %15, %14
  %29 = load i32, ptr %3, align 4
  ret i32 %29
}