; Function Attrs: mustprogress nofree norecurse nosync nounwind willreturn memory(read, inaccessiblemem: none) uwtable
define hidden range(i32 0, 2) i32 @mbedtls_mpi_get_bit(ptr noundef readonly captures(none) %0, i64 noundef %1) local_unnamed_addr #8 {
  %3 = getelementptr inbounds nuw i8, ptr %0, i64 8
  %4 = load i64, ptr %3, align 8, !tbaa !12
  %5 = shl i64 %4, 6
  %.not = icmp ugt i64 %5, %1
  br i1 %.not, label %6, label %16

6:                                                ; preds = %2
  %7 = getelementptr inbounds nuw i8, ptr %0, i64 16
  %8 = load ptr, ptr %7, align 8, !tbaa !11
  %9 = lshr i64 %1, 6
  %10 = getelementptr inbounds nuw i64, ptr %8, i64 %9
  %11 = load i64, ptr %10, align 8, !tbaa !13
  %12 = and i64 %1, 63
  %13 = lshr i64 %11, %12
  %14 = trunc i64 %13 to i32
  %15 = and i32 %14, 1
  br label %16

16:                                               ; preds = %2, %6
  %.0 = phi i32 [ %15, %6 ], [ 0, %2 ]
  ret i32 %.0
}